; Function Attrs: nounwind uwtable
define internal ptr @lxb_html_tokenizer_state_script_data_escaped_dash(ptr noundef %0, ptr noundef %1, ptr noundef readnone %2) #1 {
  %4 = load i8, ptr %1, align 1
  switch i8 %4, label %131 [
    i8 45, label %5
    i8 60, label %31
    i8 0, label %60
  ]

5:                                                ; preds = %3
  %6 = getelementptr inbounds i8, ptr %0, i64 136
  %7 = load ptr, ptr %6, align 8
  %8 = getelementptr inbounds i8, ptr %7, i64 1
  %9 = getelementptr inbounds i8, ptr %0, i64 144
  %10 = load ptr, ptr %9, align 8
  %11 = icmp ugt ptr %8, %10
  br i1 %11, label %12, label %26

12:                                               ; preds = %5
  %13 = getelementptr inbounds i8, ptr %0, i64 128
  %14 = load ptr, ptr %13, align 8
  %15 = ptrtoint ptr %14 to i64
  %16 = ptrtoint ptr %10 to i64
  %17 = add i64 %16, 4097
  %18 = sub i64 %17, %15
  %19 = tail call ptr @lexbor_realloc(ptr noundef %14, i64 noundef %18) #6
  store ptr %19, ptr %13, align 8
  %20 = icmp eq ptr %19, null
  br i1 %20, label %lxb_html_tokenizer_temp_append.exit, label %lxb_html_tokenizer_temp_realloc.exit.thread.i

lxb_html_tokenizer_temp_realloc.exit.thread.i:    ; preds = %12
  %21 = ptrtoint ptr %7 to i64
  %22 = sub i64 %21, %15
  %23 = getelementptr inbounds i8, ptr %19, i64 %22
  store ptr %23, ptr %6, align 8
  %24 = getelementptr inbounds i8, ptr %19, i64 %18
  store ptr %24, ptr %9, align 8
  %.pre65 = load i8, ptr %1, align 1
  br label %26

lxb_html_tokenizer_temp_append.exit:              ; preds = %12
  %25 = getelementptr inbounds i8, ptr %0, i64 232
  store i32 2, ptr %25, align 8
  br label %132

26:                                               ; preds = %5, %lxb_html_tokenizer_temp_realloc.exit.thread.i
  %27 = phi i8 [ %.pre65, %lxb_html_tokenizer_temp_realloc.exit.thread.i ], [ 45, %5 ]
  %28 = phi ptr [ %23, %lxb_html_tokenizer_temp_realloc.exit.thread.i ], [ %7, %5 ]
  store i8 %27, ptr %28, align 1
  %29 = getelementptr inbounds i8, ptr %28, i64 1
  store ptr %29, ptr %6, align 8
  store ptr @lxb_html_tokenizer_state_script_data_escaped_dash_dash, ptr %0, align 8
  %30 = getelementptr inbounds i8, ptr %1, i64 1
  br label %132

31:                                               ; preds = %3
  %32 = getelementptr inbounds i8, ptr %0, i64 136
  %33 = load ptr, ptr %32, align 8
  %34 = getelementptr inbounds i8, ptr %33, i64 1
  %35 = getelementptr inbounds i8, ptr %0, i64 144
  %36 = load ptr, ptr %35, align 8
  %37 = icmp ugt ptr %34, %36
  br i1 %37, label %38, label %52

38:                                               ; preds = %31
  %39 = getelementptr inbounds i8, ptr %0, i64 128
  %40 = load ptr, ptr %39, align 8
  %41 = ptrtoint ptr %40 to i64
  %42 = ptrtoint ptr %36 to i64
  %43 = add i64 %42, 4097
  %44 = sub i64 %43, %41
  %45 = tail call ptr @lexbor_realloc(ptr noundef %40, i64 noundef %44) #6
  store ptr %45, ptr %39, align 8
  %46 = icmp eq ptr %45, null
  br i1 %46, label %lxb_html_tokenizer_temp_append.exit53, label %lxb_html_tokenizer_temp_realloc.exit.thread.i52

lxb_html_tokenizer_temp_realloc.exit.thread.i52:  ; preds = %38
  %47 = ptrtoint ptr %33 to i64
  %48 = sub i64 %47, %41
  %49 = getelementptr inbounds i8, ptr %45, i64 %48
  store ptr %49, ptr %32, align 8
  %50 = getelementptr inbounds i8, ptr %45, i64 %44
  store ptr %50, ptr %35, align 8
  %.pre = load i8, ptr %1, align 1
  br label %52

lxb_html_tokenizer_temp_append.exit53:            ; preds = %38
  %51 = getelementptr inbounds i8, ptr %0, i64 232
  store i32 2, ptr %51, align 8
  br label %132

52:                                               ; preds = %31, %lxb_html_tokenizer_temp_realloc.exit.thread.i52
  %53 = phi i8 [ %.pre, %lxb_html_tokenizer_temp_realloc.exit.thread.i52 ], [ 60, %31 ]
  %54 = phi ptr [ %49, %lxb_html_tokenizer_temp_realloc.exit.thread.i52 ], [ %33, %31 ]
  store i8 %53, ptr %54, align 1
  %55 = getelementptr inbounds i8, ptr %54, i64 1
  store ptr %55, ptr %32, align 8
  %56 = getelementptr inbounds i8, ptr %0, i64 64
  %57 = load ptr, ptr %56, align 8
  %58 = getelementptr inbounds i8, ptr %57, i64 8
  store ptr %1, ptr %58, align 8
  store ptr @lxb_html_tokenizer_state_script_data_escaped_less_than_sign, ptr %0, align 8
  %59 = getelementptr inbounds i8, ptr %1, i64 1
  br label %132

60:                                               ; preds = %3
  %61 = getelementptr inbounds i8, ptr %0, i64 236
  %62 = load i8, ptr %61, align 4
  %63 = and i8 %62, 1
  %.not = icmp eq i8 %63, 0
  br i1 %.not, label %103, label %64

64:                                               ; preds = %60
  %65 = getelementptr inbounds i8, ptr %0, i64 88
  %66 = load ptr, ptr %65, align 8
  %67 = getelementptr inbounds i8, ptr %0, i64 160
  %68 = load ptr, ptr %67, align 8
  %69 = tail call ptr @lxb_html_tokenizer_error_add(ptr noundef %66, ptr noundef %68, i32 noundef 15) #6
  %70 = getelementptr inbounds i8, ptr %0, i64 64
  %71 = load ptr, ptr %70, align 8
  %72 = getelementptr inbounds i8, ptr %71, i64 80
  store i64 2, ptr %72, align 8
  %73 = getelementptr inbounds i8, ptr %0, i64 128
  %74 = load ptr, ptr %73, align 8
  %75 = load ptr, ptr %70, align 8
  %76 = getelementptr inbounds i8, ptr %75, i64 32
  store ptr %74, ptr %76, align 8
  %77 = getelementptr inbounds i8, ptr %0, i64 136
  %78 = load ptr, ptr %77, align 8
  %79 = load ptr, ptr %70, align 8
  %80 = getelementptr inbounds i8, ptr %79, i64 40
  store ptr %78, ptr %80, align 8
  %81 = load ptr, ptr %67, align 8
  %82 = load ptr, ptr %70, align 8
  %83 = getelementptr inbounds i8, ptr %82, i64 8
  store ptr %81, ptr %83, align 8
  %84 = load ptr, ptr %70, align 8
  %85 = load ptr, ptr %84, align 8
  %86 = getelementptr inbounds i8, ptr %84, i64 8
  %87 = load ptr, ptr %86, align 8
  %.not48 = icmp eq ptr %85, %87
  br i1 %.not48, label %100, label %88

88:                                               ; preds = %64
  %89 = getelementptr inbounds i8, ptr %0, i64 16
  %90 = load ptr, ptr %89, align 8
  %91 = getelementptr inbounds i8, ptr %0, i64 24
  %92 = load ptr, ptr %91, align 8
  %93 = tail call ptr %90(ptr noundef nonnull %0, ptr noundef nonnull %84, ptr noundef %92) #6
  store ptr %93, ptr %70, align 8
  %94 = icmp eq ptr %93, null
  br i1 %94, label %95, label %100

95:                                               ; preds = %88
  %96 = getelementptr inbounds i8, ptr %0, i64 232
  %97 = load i32, ptr %96, align 8
  %98 = icmp eq i32 %97, 0
  br i1 %98, label %99, label %132

99:                                               ; preds = %95
  store i32 1, ptr %96, align 8
  br label %132

100:                                              ; preds = %88, %64
  %101 = phi ptr [ %93, %88 ], [ %84, %64 ]
  tail call void @llvm.memset.p0.i64(ptr noundef nonnull align 8 dereferenceable(96) %101, i8 0, i64 96, i1 false)
  %102 = load ptr, ptr %73, align 8
  store ptr %102, ptr %77, align 8
  br label %132

103:                                              ; preds = %60
  %104 = getelementptr inbounds i8, ptr %0, i64 136
  %105 = load ptr, ptr %104, align 8
  %106 = getelementptr inbounds i8, ptr %105, i64 3
  %107 = getelementptr inbounds i8, ptr %0, i64 144
  %108 = load ptr, ptr %107, align 8
  %109 = icmp ugt ptr %106, %108
  br i1 %109, label %110, label %124

110:                                              ; preds = %103
  %111 = getelementptr inbounds i8, ptr %0, i64 128
  %112 = load ptr, ptr %111, align 8
  %113 = ptrtoint ptr %112 to i64
  %114 = ptrtoint ptr %108 to i64
  %115 = add i64 %114, 4099
  %116 = sub i64 %115, %113
  %117 = tail call ptr @lexbor_realloc(ptr noundef %112, i64 noundef %116) #6
  store ptr %117, ptr %111, align 8
  %118 = icmp eq ptr %117, null
  br i1 %118, label %lxb_html_tokenizer_temp_append.exit56, label %lxb_html_tokenizer_temp_realloc.exit.thread.i55

lxb_html_tokenizer_temp_realloc.exit.thread.i55:  ; preds = %110
  %119 = ptrtoint ptr %105 to i64
  %120 = sub i64 %119, %113
  %121 = getelementptr inbounds i8, ptr %117, i64 %120
  %122 = getelementptr inbounds i8, ptr %117, i64 %116
  store ptr %122, ptr %107, align 8
  br label %124

lxb_html_tokenizer_temp_append.exit56:            ; preds = %110
  %123 = getelementptr inbounds i8, ptr %0, i64 232
  store i32 2, ptr %123, align 8
  br label %132

124:                                              ; preds = %103, %lxb_html_tokenizer_temp_realloc.exit.thread.i55
  %125 = phi ptr [ %121, %lxb_html_tokenizer_temp_realloc.exit.thread.i55 ], [ %105, %103 ]
  tail call void @llvm.memcpy.p0.p0.i64(ptr noundef nonnull align 1 dereferenceable(3) %125, ptr noundef nonnull align 1 dereferenceable(3) @lexbor_str_res_ansi_replacement_character, i64 3, i1 false)
  %126 = getelementptr inbounds i8, ptr %125, i64 3
  store ptr %126, ptr %104, align 8
  %127 = getelementptr inbounds i8, ptr %0, i64 88
  %128 = load ptr, ptr %127, align 8
  %129 = tail call ptr @lxb_html_tokenizer_error_add(ptr noundef %128, ptr noundef nonnull %1, i32 noundef 45) #6
  store ptr @lxb_html_tokenizer_state_script_data_escaped, ptr %0, align 8
  %130 = getelementptr inbounds i8, ptr %1, i64 1
  br label %132

131:                                              ; preds = %3
  store ptr @lxb_html_tokenizer_state_script_data_escaped, ptr %0, align 8
  br label %132

132:                                              ; preds = %lxb_html_tokenizer_temp_append.exit56, %lxb_html_tokenizer_temp_append.exit53, %lxb_html_tokenizer_temp_append.exit, %95, %99, %131, %124, %100, %52, %26
  %.0 = phi ptr [ %1, %131 ], [ %2, %100 ], [ %130, %124 ], [ %59, %52 ], [ %30, %26 ], [ %2, %lxb_html_tokenizer_temp_append.exit ], [ %2, %lxb_html_tokenizer_temp_append.exit53 ], [ %2, %99 ], [ %2, %95 ], [ %2, %lxb_html_tokenizer_temp_append.exit56 ]
  ret ptr %.0
}